; Function Attrs: nounwind uwtable
define dso_local range(i32 -1, 1) i32 @proctrack_g_init() local_unnamed_addr #0 {
  %1 = tail call i32 @pthread_mutex_lock(ptr noundef nonnull @g_context_lock) #10
  %.not = icmp eq i32 %1, 0
  br i1 %.not, label %4, label %2

2:                                                ; preds = %0
  %3 = tail call ptr @__errno_location() #11
  store i32 %1, ptr %3, align 4
  tail call void (ptr, ...) @fatal_abort(ptr noundef nonnull @.str.1, ptr noundef nonnull @__func__.proctrack_g_init) #12
  unreachable

4:                                                ; preds = %0
  %5 = load ptr, ptr @g_context, align 8
  %.not8 = icmp eq ptr %5, null
  br i1 %.not8, label %6, label %12

6:                                                ; preds = %4
  %7 = load ptr, ptr getelementptr inbounds nuw (i8, ptr @slurm_conf, i64 912), align 8
  %8 = tail call ptr @plugin_context_create(ptr noundef nonnull @.str, ptr noundef %7, ptr noundef nonnull @ops, ptr noundef nonnull @syms, i64 noundef 64) #10
  store ptr %8, ptr @g_context, align 8
  %.not9 = icmp eq ptr %8, null
  br i1 %.not9, label %9, label %12

9:                                                ; preds = %6
  %10 = load ptr, ptr getelementptr inbounds nuw (i8, ptr @slurm_conf, i64 912), align 8
  %11 = tail call i32 (ptr, ...) @error(ptr noundef nonnull @.str.2, ptr noundef nonnull @.str, ptr noundef %10) #10
  br label %12

12:                                               ; preds = %9, %4, %6
  %.0 = phi i32 [ 0, %4 ], [ 0, %6 ], [ -1, %9 ]
  %13 = tail call i32 @pthread_mutex_unlock(ptr noundef nonnull @g_context_lock) #10
  %.not10 = icmp eq i32 %13, 0
  br i1 %.not10, label %16, label %14

14:                                               ; preds = %12
  %15 = tail call ptr @__errno_location() #11
  store i32 %13, ptr %15, align 4
  tail call void (ptr, ...) @fatal_abort(ptr noundef nonnull @.str.3, ptr noundef nonnull @__func__.proctrack_g_init) #12
  unreachable

16:                                               ; preds = %12
  ret i32 %.0
}